target datalayout = "e-m:e-p270:32:32-p271:32:32-p272:64:64-i64:64-i128:128-f80:128-n8:16:32:64-S128"
target triple = "x86_64-pc-linux-gnu"

%struct.uv_udp_s = type { ptr, ptr, i32, ptr, [2 x ptr], %union.anon, ptr, i32, i64, i64, ptr, ptr, %struct.uv__io_s, [2 x ptr], [2 x ptr] }
%union.anon = type { [4 x ptr] }
%struct.uv__io_s = type { ptr, [2 x ptr], [2 x ptr], i32, i32, i32 }
%struct.uv_loop_s = type { ptr, i32, [2 x ptr], %union.anon.0, ptr, i32, i64, i32, [2 x ptr], [2 x ptr], ptr, i32, i32, [2 x ptr], %union.pthread_mutex_t, %struct.uv_async_s, %union.pthread_rwlock_t, ptr, [2 x ptr], [2 x ptr], [2 x ptr], [2 x ptr], [2 x ptr], ptr, %struct.uv__io_s, i32, %struct.anon, i64, i64, [2 x i32], %struct.uv__io_s, %struct.uv_signal_s, i32, %struct.uv__io_s, ptr, i32 }
%union.anon.0 = type { ptr }
%union.pthread_mutex_t = type { %struct.__pthread_mutex_s }
%struct.__pthread_mutex_s = type { i32, i32, i32, i32, i32, i16, i16, %struct.__pthread_internal_list }
%struct.__pthread_internal_list = type { ptr, ptr }
%struct.uv_async_s = type { ptr, ptr, i32, ptr, [2 x ptr], %union.anon.1, ptr, i32, ptr, [2 x ptr], i32 }
%union.anon.1 = type { [4 x ptr] }
%union.pthread_rwlock_t = type { %struct.__pthread_rwlock_arch_t }
%struct.__pthread_rwlock_arch_t = type { i32, i32, i32, i32, i32, i32, i32, i32, i8, [7 x i8], i64, i32 }
%struct.anon = type { ptr, i32 }
%struct.uv_signal_s = type { ptr, ptr, i32, ptr, [2 x ptr], %union.anon.2, ptr, i32, ptr, i32, %struct.anon.3, i32, i32 }
%union.anon.2 = type { [4 x ptr] }
%struct.anon.3 = type { ptr, ptr, ptr, i32 }
%struct.uv_udp_send_s = type { ptr, i32, [6 x ptr], ptr, ptr, [2 x ptr], %struct.sockaddr_storage, i32, ptr, i64, ptr, [4 x %struct.uv_buf_t] }
%struct.sockaddr_storage = type { i16, [118 x i8], i64 }
%struct.uv_buf_t = type { ptr, i64 }

; Function Attrs: nounwind uwtable
define internal void @uv__udp_run_completed(ptr noundef %0) #0 {
  %2 = alloca ptr, align 8
  %3 = alloca ptr, align 8
  %4 = alloca ptr, align 8
  store ptr %0, ptr %2, align 8
  %5 = load ptr, ptr %2, align 8
  %6 = getelementptr inbounds %struct.uv_udp_s, ptr %5, i32 0, i32 7
  %7 = load i32, ptr %6, align 8
  %8 = or i32 %7, 16777216
  store i32 %8, ptr %6, align 8
  br label %9

9:                                                ; preds = %102, %82, %1
  %10 = load ptr, ptr %2, align 8
  %11 = getelementptr inbounds %struct.uv_udp_s, ptr %10, i32 0, i32 14
  %12 = load ptr, ptr %2, align 8
  %13 = getelementptr inbounds %struct.uv_udp_s, ptr %12, i32 0, i32 14
  %14 = getelementptr inbounds [2 x ptr], ptr %13, i64 0, i64 0
  %15 = load ptr, ptr %14, align 8
  %16 = icmp eq ptr %11, %15
  %17 = xor i1 %16, true
  br i1 %17, label %18, label %103

18:                                               ; preds = %9
  %19 = load ptr, ptr %2, align 8
  %20 = getelementptr inbounds %struct.uv_udp_s, ptr %19, i32 0, i32 14
  %21 = getelementptr inbounds [2 x ptr], ptr %20, i64 0, i64 0
  %22 = load ptr, ptr %21, align 8
  store ptr %22, ptr %4, align 8
  br label %23

23:                                               ; preds = %18
  %24 = load ptr, ptr %4, align 8
  %25 = getelementptr inbounds [2 x ptr], ptr %24, i64 0, i64 0
  %26 = load ptr, ptr %25, align 8
  %27 = load ptr, ptr %4, align 8
  %28 = getelementptr inbounds [2 x ptr], ptr %27, i64 0, i64 1
  %29 = load ptr, ptr %28, align 8
  %30 = getelementptr inbounds [2 x ptr], ptr %29, i64 0, i64 0
  store ptr %26, ptr %30, align 8
  %31 = load ptr, ptr %4, align 8
  %32 = getelementptr inbounds [2 x ptr], ptr %31, i64 0, i64 1
  %33 = load ptr, ptr %32, align 8
  %34 = load ptr, ptr %4, align 8
  %35 = getelementptr inbounds [2 x ptr], ptr %34, i64 0, i64 0
  %36 = load ptr, ptr %35, align 8
  %37 = getelementptr inbounds [2 x ptr], ptr %36, i64 0, i64 1
  store ptr %33, ptr %37, align 8
  br label %38

38:                                               ; preds = %23
  %39 = load ptr, ptr %4, align 8
  %40 = getelementptr inbounds i8, ptr %39, i64 -80
  store ptr %40, ptr %3, align 8
  br label %41

41:                                               ; preds = %38
  %42 = load ptr, ptr %2, align 8
  %43 = getelementptr inbounds %struct.uv_udp_s, ptr %42, i32 0, i32 1
  %44 = load ptr, ptr %43, align 8
  %45 = getelementptr inbounds %struct.uv_loop_s, ptr %44, i32 0, i32 3
  %46 = load i32, ptr %45, align 8
  %47 = add i32 %46, -1
  store i32 %47, ptr %45, align 8
  br label %48

48:                                               ; preds = %41
  %49 = load ptr, ptr %3, align 8
  %50 = getelementptr inbounds %struct.uv_udp_send_s, ptr %49, i32 0, i32 8
  %51 = load ptr, ptr %50, align 8
  %52 = load ptr, ptr %3, align 8
  %53 = getelementptr inbounds %struct.uv_udp_send_s, ptr %52, i32 0, i32 7
  %54 = load i32, ptr %53, align 8
  %55 = call i64 @uv__count_bufs(ptr noundef %51, i32 noundef %54)
  %56 = load ptr, ptr %2, align 8
  %57 = getelementptr inbounds %struct.uv_udp_s, ptr %56, i32 0, i32 8
  %58 = load i64, ptr %57, align 8
  %59 = sub i64 %58, %55
  store i64 %59, ptr %57, align 8
  %60 = load ptr, ptr %2, align 8
  %61 = getelementptr inbounds %struct.uv_udp_s, ptr %60, i32 0, i32 9
  %62 = load i64, ptr %61, align 8
  %63 = add i64 %62, -1
  store i64 %63, ptr %61, align 8
  %64 = load ptr, ptr %3, align 8
  %65 = getelementptr inbounds %struct.uv_udp_send_s, ptr %64, i32 0, i32 8
  %66 = load ptr, ptr %65, align 8
  %67 = load ptr, ptr %3, align 8
  %68 = getelementptr inbounds %struct.uv_udp_send_s, ptr %67, i32 0, i32 11
  %69 = getelementptr inbounds [4 x %struct.uv_buf_t], ptr %68, i64 0, i64 0
  %70 = icmp ne ptr %66, %69
  br i1 %70, label %71, label %75

71:                                               ; preds = %48
  %72 = load ptr, ptr %3, align 8
  %73 = getelementptr inbounds %struct.uv_udp_send_s, ptr %72, i32 0, i32 8
  %74 = load ptr, ptr %73, align 8
  call void @uv__free(ptr noundef %74)
  br label %75

75:                                               ; preds = %71, %48
  %76 = load ptr, ptr %3, align 8
  %77 = getelementptr inbounds %struct.uv_udp_send_s, ptr %76, i32 0, i32 8
  store ptr null, ptr %77, align 8
  %78 = load ptr, ptr %3, align 8
  %79 = getelementptr inbounds %struct.uv_udp_send_s, ptr %78, i32 0, i32 10
  %80 = load ptr, ptr %79, align 8
  %81 = icmp eq ptr %80, null
  br i1 %81, label %82, label %83

82:                                               ; preds = %75
  br label %9, !llvm.loop !7

83:                                               ; preds = %75
  %84 = load ptr, ptr %3, align 8
  %85 = getelementptr inbounds %struct.uv_udp_send_s, ptr %84, i32 0, i32 9
  %86 = load i64, ptr %85, align 8
  %87 = icmp sge i64 %86, 0
  br i1 %87, label %88, label %93

88:                                               ; preds = %83
  %89 = load ptr, ptr %3, align 8
  %90 = getelementptr inbounds %struct.uv_udp_send_s, ptr %89, i32 0, i32 10
  %91 = load ptr, ptr %90, align 8
  %92 = load ptr, ptr %3, align 8
  call void %91(ptr noundef %92, i32 noundef 0)
  br label %102

93:                                               ; preds = %83
  %94 = load ptr, ptr %3, align 8
  %95 = getelementptr inbounds %struct.uv_udp_send_s, ptr %94, i32 0, i32 10
  %96 = load ptr, ptr %95, align 8
  %97 = load ptr, ptr %3, align 8
  %98 = load ptr, ptr %3, align 8
  %99 = getelementptr inbounds %struct.uv_udp_send_s, ptr %98, i32 0, i32 9
  %100 = load i64, ptr %99, align 8
  %101 = trunc i64 %100 to i32
  call void %96(ptr noundef %97, i32 noundef %101)
  br label %102

102:                                              ; preds = %93, %88
  br label %9, !llvm.loop !7

103:                                              ; preds = %9
  %104 = load ptr, ptr %2, align 8
  %105 = getelementptr inbounds %struct.uv_udp_s, ptr %104, i32 0, i32 13
  %106 = load ptr, ptr %2, align 8
  %107 = getelementptr inbounds %struct.uv_udp_s, ptr %106, i32 0, i32 13
  %108 = getelementptr inbounds [2 x ptr], ptr %107, i64 0, i64 0
  %109 = load ptr, ptr %108, align 8
  %110 = icmp eq ptr %105, %109
  br i1 %110, label %111, label %151

111:                                              ; preds = %103
  %112 = load ptr, ptr %2, align 8
  %113 = getelementptr inbounds %struct.uv_udp_s, ptr %112, i32 0, i32 1
  %114 = load ptr, ptr %113, align 8
  %115 = load ptr, ptr %2, align 8
  %116 = getelementptr inbounds %struct.uv_udp_s, ptr %115, i32 0, i32 12
  call void @uv__io_stop(ptr noundef %114, ptr noundef %116, i32 noundef 4)
  %117 = load ptr, ptr %2, align 8
  %118 = getelementptr inbounds %struct.uv_udp_s, ptr %117, i32 0, i32 12
  %119 = call i32 @uv__io_active(ptr noundef %118, i32 noundef 1)
  %120 = icmp ne i32 %119, 0
  br i1 %120, label %150, label %121

121:                                              ; preds = %111
  br label %122

122:                                              ; preds = %121
  %123 = load ptr, ptr %2, align 8
  %124 = getelementptr inbounds %struct.uv_udp_s, ptr %123, i32 0, i32 7
  %125 = load i32, ptr %124, align 8
  %126 = and i32 %125, 4
  %127 = icmp eq i32 %126, 0
  br i1 %127, label %128, label %129

128:                                              ; preds = %122
  br label %149

129:                                              ; preds = %122
  %130 = load ptr, ptr %2, align 8
  %131 = getelementptr inbounds %struct.uv_udp_s, ptr %130, i32 0, i32 7
  %132 = load i32, ptr %131, align 8
  %133 = and i32 %132, -5
  store i32 %133, ptr %131, align 8
  %134 = load ptr, ptr %2, align 8
  %135 = getelementptr inbounds %struct.uv_udp_s, ptr %134, i32 0, i32 7
  %136 = load i32, ptr %135, align 8
  %137 = and i32 %136, 8
  %138 = icmp ne i32 %137, 0
  br i1 %138, label %139, label %148

139:                                              ; preds = %129
  br label %140

140:                                              ; preds = %139
  %141 = load ptr, ptr %2, align 8
  %142 = getelementptr inbounds %struct.uv_udp_s, ptr %141, i32 0, i32 1
  %143 = load ptr, ptr %142, align 8
  %144 = getelementptr inbounds %struct.uv_loop_s, ptr %143, i32 0, i32 1
  %145 = load i32, ptr %144, align 8
  %146 = add i32 %145, -1
  store i32 %146, ptr %144, align 8
  br label %147

147:                                              ; preds = %140
  br label %148

148:                                              ; preds = %147, %129
  br label %149

149:                                              ; preds = %148, %128
  br label %150

150:                                              ; preds = %149, %111
  br label %151

151:                                              ; preds = %150, %103
  %152 = load ptr, ptr %2, align 8
  %153 = getelementptr inbounds %struct.uv_udp_s, ptr %152, i32 0, i32 7
  %154 = load i32, ptr %153, align 8
  %155 = and i32 %154, -16777217
  store i32 %155, ptr %153, align 8
  ret void
}